target datalayout = "e-m:e-p270:32:32-p271:32:32-p272:64:64-i64:64-i128:128-f80:128-n8:16:32:64-S128"
target triple = "x86_64-unknown-linux-gnu"

%"class.icu_75::UnhandledEngine" = type { %"class.icu_75::LanguageBreakEngine", ptr }
%"class.icu_75::LanguageBreakEngine" = type { %"class.icu_75::UObject" }
%"class.icu_75::UObject" = type { ptr }

; Function Attrs: mustprogress nounwind uwtable
define internal noundef signext i8 @_ZL9U_FAILURE10UErrorCode(i32 noundef %code) #0 {
entry:
  %code.addr = alloca i32, align 4
  store i32 %code, ptr %code.addr, align 4
  %0 = load i32, ptr %code.addr, align 4
  %cmp = icmp sgt i32 %0, 0
  %conv = zext i1 %cmp to i8
  ret i8 %conv
}

; Function Attrs: mustprogress uwtable
define noundef i32 @_ZNK6icu_7515UnhandledEngine10findBreaksEP5UTextiiRNS_9UVector32EaR10UErrorCode(ptr noundef nonnull align 8 dereferenceable(16) %this, ptr noundef %text, i32 noundef %startPos, i32 noundef %endPos, ptr noundef nonnull align 8 dereferenceable(32) %0, i8 noundef signext %1, ptr noundef nonnull align 4 dereferenceable(4) %status) unnamed_addr #1 align 2 {
entry:
  %retval = alloca i32, align 4
  %this.addr = alloca ptr, align 8
  %text.addr = alloca ptr, align 8
  %startPos.addr = alloca i32, align 4
  %endPos.addr = alloca i32, align 4
  %.addr = alloca ptr, align 8
  %.addr1 = alloca i8, align 1
  %status.addr = alloca ptr, align 8
  %c = alloca i32, align 4
  store ptr %this, ptr %this.addr, align 8
  store ptr %text, ptr %text.addr, align 8
  store i32 %startPos, ptr %startPos.addr, align 4
  store i32 %endPos, ptr %endPos.addr, align 4
  store ptr %0, ptr %.addr, align 8
  store i8 %1, ptr %.addr1, align 1
  store ptr %status, ptr %status.addr, align 8
  %this2 = load ptr, ptr %this.addr, align 8
  %2 = load ptr, ptr %status.addr, align 8
  %3 = load i32, ptr %2, align 4
  %call = call noundef signext i8 @_ZL9U_FAILURE10UErrorCode(i32 noundef %3)
  %tobool = icmp ne i8 %call, 0
  br i1 %tobool, label %if.then, label %if.end

if.then:                                          ; preds = %entry
  store i32 0, ptr %retval, align 4
  br label %return

if.end:                                           ; preds = %entry
  %4 = load ptr, ptr %text.addr, align 8
  %5 = load i32, ptr %startPos.addr, align 4
  %conv = sext i32 %5 to i64
  call void @utext_setNativeIndex_75(ptr noundef %4, i64 noundef %conv)
  %6 = load ptr, ptr %text.addr, align 8
  %call3 = call i32 @utext_current32_75(ptr noundef %6)
  store i32 %call3, ptr %c, align 4
  br label %while.cond

while.cond:                                       ; preds = %while.body, %if.end
  %7 = load ptr, ptr %text.addr, align 8
  %call4 = call i64 @utext_getNativeIndex_75(ptr noundef %7)
  %conv5 = trunc i64 %call4 to i32
  %8 = load i32, ptr %endPos.addr, align 4
  %cmp = icmp slt i32 %conv5, %8
  br i1 %cmp, label %land.rhs, label %land.end

land.rhs:                                         ; preds = %while.cond
  %fHandled = getelementptr inbounds %"class.icu_75::UnhandledEngine", ptr %this2, i32 0, i32 1
  %9 = load ptr, ptr %fHandled, align 8
  %10 = load i32, ptr %c, align 4
  %call6 = call noundef signext i8 @_ZNK6icu_7510UnicodeSet8containsEi(ptr noundef nonnull align 8 dereferenceable(200) %9, i32 noundef %10)
  %tobool7 = icmp ne i8 %call6, 0
  br label %land.end

land.end:                                         ; preds = %land.rhs, %while.cond
  %11 = phi i1 [ false, %while.cond ], [ %tobool7, %land.rhs ]
  br i1 %11, label %while.body, label %while.end

while.body:                                       ; preds = %land.end
  %12 = load ptr, ptr %text.addr, align 8
  %call8 = call i32 @utext_next32_75(ptr noundef %12)
  %13 = load ptr, ptr %text.addr, align 8
  %call9 = call i32 @utext_current32_75(ptr noundef %13)
  store i32 %call9, ptr %c, align 4
  br label %while.cond, !llvm.loop !4

while.end:                                        ; preds = %land.end
  store i32 0, ptr %retval, align 4
  br label %return

return:                                           ; preds = %while.end, %if.then
  %14 = load i32, ptr %retval, align 4
  ret i32 %14
}