; Function Attrs: mustprogress uwtable
define noundef i32 @_ZNK6icu_7515UnhandledEngine10findBreaksEP5UTextiiRNS_9UVector32EaR10UErrorCode(ptr nocapture noundef nonnull readonly align 8 dereferenceable(16) %this, ptr noundef %text, i32 noundef %startPos, i32 noundef %endPos, ptr nocapture nonnull readnone align 8 %0, i8 signext %1, ptr nocapture noundef nonnull readonly align 4 dereferenceable(4) %status) unnamed_addr #1 align 2 {
entry:
  %2 = load i32, ptr %status, align 4
  %cmp.i = icmp slt i32 %2, 1
  br i1 %cmp.i, label %if.end, label %return

if.end:                                           ; preds = %entry
  %conv = sext i32 %startPos to i64
  tail call void @utext_setNativeIndex_75(ptr noundef %text, i64 noundef %conv)
  %call3 = tail call i32 @utext_current32_75(ptr noundef %text)
  %fHandled = getelementptr inbounds i8, ptr %this, i64 8
  %call45 = tail call i64 @utext_getNativeIndex_75(ptr noundef %text)
  %conv56 = trunc i64 %call45 to i32
  %cmp7 = icmp slt i32 %conv56, %endPos
  br i1 %cmp7, label %land.rhs, label %return

land.rhs:                                         ; preds = %if.end, %while.body
  %c.08 = phi i32 [ %call9, %while.body ], [ %call3, %if.end ]
  %3 = load ptr, ptr %fHandled, align 8
  %call6 = tail call noundef signext i8 @_ZNK6icu_7510UnicodeSet8containsEi(ptr noundef nonnull align 8 dereferenceable(200) %3, i32 noundef %c.08)
  %tobool7.not = icmp eq i8 %call6, 0
  br i1 %tobool7.not, label %return, label %while.body

while.body:                                       ; preds = %land.rhs
  %call8 = tail call i32 @utext_next32_75(ptr noundef %text)
  %call9 = tail call i32 @utext_current32_75(ptr noundef %text)
  %call4 = tail call i64 @utext_getNativeIndex_75(ptr noundef %text)
  %conv5 = trunc i64 %call4 to i32
  %cmp = icmp slt i32 %conv5, %endPos
  br i1 %cmp, label %land.rhs, label %return, !llvm.loop !4

return:                                           ; preds = %while.body, %land.rhs, %if.end, %entry
  ret i32 0
}